target datalayout = "e-m:e-p270:32:32-p271:32:32-p272:64:64-i64:64-i128:128-f80:128-n8:16:32:64-S128"
target triple = "x86_64-pc-linux-gnu"

%struct.jit_State = type { %struct.GCtrace, ptr, ptr, ptr, ptr, ptr, ptr, i32, i32, i32, i8, i8, %struct.IRType1, i8, %struct.FoldState, ptr, i32, i32, i32, i32, i32, i32, i32, [1 x i32], [5 x %union.TValue], [3 x %union.TValue], ptr, i32, i32, i32, i32, ptr, ptr, i32, i32, i8, ptr, i32, i32, i16, [101 x i16], [258 x i32], [15 x i32], [16 x ptr], [64 x %struct.HotPenalty], i32, [16 x %struct.BPropEntry], i32, %struct.ScEvEntry, ptr, i32, i32, i32, ptr, i32, i32, ptr, ptr, ptr, i64, i64, %union.TValue, ptr, i32, i32 }
%struct.GCtrace = type { %struct.GCRef, i8, i8, i16, i32, i32, %struct.GCRef, ptr, i32, i32, ptr, ptr, %struct.GCRef, %struct.MRef, i32, i32, ptr, i32, i16, i16, i16, i16, i16, i16, i16, i8, i8, i8, i8 }
%struct.GCRef = type { i64 }
%struct.MRef = type { i64 }
%struct.IRType1 = type { i8 }
%struct.FoldState = type { %union.IRIns, [2 x %union.IRIns], [2 x %union.IRIns] }
%union.IRIns = type { %struct.GCRef }
%struct.HotPenalty = type { %struct.MRef, i16, i16 }
%struct.BPropEntry = type { i16, i16, i32 }
%struct.ScEvEntry = type { %struct.MRef, i16, i16, i16, i16, %struct.IRType1, i8 }
%union.TValue = type { i64 }
%struct.lua_State = type { %struct.GCRef, i8, i8, i8, i8, %struct.MRef, %struct.GCRef, ptr, ptr, %struct.MRef, %struct.MRef, %struct.GCRef, %struct.GCRef, ptr, i32 }
%struct.GG_State = type { %struct.lua_State, %struct.global_State, %struct.jit_State, [64 x i16], [243 x ptr], [57 x i32] }
%struct.global_State = type { ptr, ptr, %struct.GCState, %struct.GCstr, i8, i8, i8, i8, %struct.StrInternState, i32, %struct.GCRef, %struct.SBuf, %union.TValue, %union.TValue, %struct.Node, %union.TValue, %struct.GCupval, i32, i32, ptr, ptr, ptr, i32, i32, %struct.GCRef, %struct.MRef, %struct.MRef, %struct.PRNGState, [39 x %struct.GCRef] }
%struct.GCState = type { i64, i64, i8, i8, i8, i8, i32, %struct.GCRef, %struct.MRef, %struct.GCRef, %struct.GCRef, %struct.GCRef, %struct.GCRef, i64, i64, i32, i32, %struct.MRef }
%struct.GCstr = type { %struct.GCRef, i8, i8, i8, i8, i32, i32, i32 }
%struct.StrInternState = type { ptr, i32, i32, i32, i8, i8, i8, i8, i64 }
%struct.SBuf = type { ptr, ptr, ptr, %struct.MRef }
%struct.Node = type { %union.TValue, %union.TValue, %struct.MRef }
%struct.GCupval = type { %struct.GCRef, i8, i8, i8, i8, %union.anon, %struct.MRef, i32 }
%union.anon = type { %struct.anon.3 }
%struct.anon.3 = type { %struct.GCRef, %struct.GCRef }
%struct.PRNGState = type { [4 x i64] }
%struct.GCfuncC = type { %struct.GCRef, i8, i8, i8, i8, %struct.GCRef, %struct.GCRef, %struct.MRef, ptr, [1 x %union.TValue] }
%struct.GCfuncL = type { %struct.GCRef, i8, i8, i8, i8, %struct.GCRef, %struct.GCRef, %struct.MRef, [1 x %struct.GCRef] }
%struct.SnapShot = type { i32, i16, i16, i8, i8, i8, i8 }

; Function Attrs: nounwind uwtable
define hidden void @lj_trace_ins(ptr noundef %0, ptr noundef %1) #3 {
  %3 = alloca ptr, align 8
  %4 = alloca ptr, align 8
  store ptr %0, ptr %3, align 8, !tbaa !4
  store ptr %1, ptr %4, align 8, !tbaa !67
  %5 = load ptr, ptr %4, align 8, !tbaa !67
  %6 = load ptr, ptr %3, align 8, !tbaa !4
  %7 = getelementptr inbounds nuw %struct.jit_State, ptr %6, i32 0, i32 3
  store ptr %5, ptr %7, align 8, !tbaa !95
  %8 = load ptr, ptr %3, align 8, !tbaa !4
  %9 = getelementptr inbounds nuw %struct.jit_State, ptr %8, i32 0, i32 2
  %10 = load ptr, ptr %9, align 8, !tbaa !12
  %11 = getelementptr inbounds nuw %struct.lua_State, ptr %10, i32 0, i32 7
  %12 = load ptr, ptr %11, align 8, !tbaa !96
  %13 = getelementptr inbounds %union.TValue, ptr %12, i64 -2
  %14 = getelementptr inbounds nuw %struct.GCRef, ptr %13, i32 0, i32 0
  %15 = load i64, ptr %14, align 8, !tbaa !11
  %16 = and i64 %15, 140737488355327
  %17 = inttoptr i64 %16 to ptr
  %18 = load ptr, ptr %3, align 8, !tbaa !4
  %19 = getelementptr inbounds nuw %struct.jit_State, ptr %18, i32 0, i32 4
  store ptr %17, ptr %19, align 8, !tbaa !97
  %20 = load ptr, ptr %3, align 8, !tbaa !4
  %21 = getelementptr inbounds nuw %struct.jit_State, ptr %20, i32 0, i32 4
  %22 = load ptr, ptr %21, align 8, !tbaa !97
  %23 = getelementptr inbounds nuw %struct.GCfuncC, ptr %22, i32 0, i32 3
  %24 = load i8, ptr %23, align 2, !tbaa !11
  %25 = zext i8 %24 to i32
  %26 = icmp eq i32 %25, 0
  br i1 %26, label %27, label %36

27:                                               ; preds = %2
  %28 = load ptr, ptr %3, align 8, !tbaa !4
  %29 = getelementptr inbounds nuw %struct.jit_State, ptr %28, i32 0, i32 4
  %30 = load ptr, ptr %29, align 8, !tbaa !97
  %31 = getelementptr inbounds nuw %struct.GCfuncL, ptr %30, i32 0, i32 7
  %32 = getelementptr inbounds nuw %struct.MRef, ptr %31, i32 0, i32 0
  %33 = load i64, ptr %32, align 8, !tbaa !11
  %34 = inttoptr i64 %33 to ptr
  %35 = getelementptr inbounds i8, ptr %34, i64 -104
  br label %37

36:                                               ; preds = %2
  br label %37

37:                                               ; preds = %36, %27
  %38 = phi ptr [ %35, %27 ], [ null, %36 ]
  %39 = load ptr, ptr %3, align 8, !tbaa !4
  %40 = getelementptr inbounds nuw %struct.jit_State, ptr %39, i32 0, i32 5
  store ptr %38, ptr %40, align 8, !tbaa !98
  br label %41

41:                                               ; preds = %48, %37
  %42 = load ptr, ptr %3, align 8, !tbaa !4
  %43 = getelementptr inbounds nuw %struct.jit_State, ptr %42, i32 0, i32 2
  %44 = load ptr, ptr %43, align 8, !tbaa !12
  %45 = load ptr, ptr %3, align 8, !tbaa !4
  %46 = call i32 @lj_vm_cpcall(ptr noundef %44, ptr noundef null, ptr noundef %45, ptr noundef @trace_state)
  %47 = icmp ne i32 %46, 0
  br i1 %47, label %48, label %51

48:                                               ; preds = %41
  %49 = load ptr, ptr %3, align 8, !tbaa !4
  %50 = getelementptr inbounds nuw %struct.jit_State, ptr %49, i32 0, i32 17
  store i32 22, ptr %50, align 4, !tbaa !99
  br label %41, !llvm.loop !100

51:                                               ; preds = %41
  ret void
}

; Function Attrs: nounwind uwtable
define internal void @trace_hotside(ptr noundef %0, ptr noundef %1) #3 {
  %3 = alloca ptr, align 8
  %4 = alloca ptr, align 8
  %5 = alloca ptr, align 8
  store ptr %0, ptr %3, align 8, !tbaa !4
  store ptr %1, ptr %4, align 8, !tbaa !67
  call void @llvm.lifetime.start.p0(i64 8, ptr %5) #11
  %6 = load ptr, ptr %3, align 8, !tbaa !4
  %7 = getelementptr inbounds nuw %struct.jit_State, ptr %6, i32 0, i32 36
  %8 = load ptr, ptr %7, align 8, !tbaa !50
  %9 = load ptr, ptr %3, align 8, !tbaa !4
  %10 = getelementptr inbounds nuw %struct.jit_State, ptr %9, i32 0, i32 50
  %11 = load i32, ptr %10, align 8, !tbaa !103
  %12 = zext i32 %11 to i64
  %13 = getelementptr inbounds nuw %struct.GCRef, ptr %8, i64 %12
  %14 = getelementptr inbounds nuw %struct.GCRef, ptr %13, i32 0, i32 0
  %15 = load i64, ptr %14, align 8, !tbaa !51
  %16 = inttoptr i64 %15 to ptr
  %17 = getelementptr inbounds nuw %struct.GCtrace, ptr %16, i32 0, i32 10
  %18 = load ptr, ptr %17, align 8, !tbaa !137
  %19 = load ptr, ptr %3, align 8, !tbaa !4
  %20 = getelementptr inbounds nuw %struct.jit_State, ptr %19, i32 0, i32 51
  %21 = load i32, ptr %20, align 4, !tbaa !104
  %22 = zext i32 %21 to i64
  %23 = getelementptr inbounds nuw %struct.SnapShot, ptr %18, i64 %22
  store ptr %23, ptr %5, align 8, !tbaa !138
  %24 = load ptr, ptr %3, align 8, !tbaa !4
  %25 = getelementptr inbounds i8, ptr %24, i64 -832
  %26 = getelementptr inbounds nuw %struct.GG_State, ptr %25, i32 0, i32 1
  %27 = getelementptr inbounds nuw %struct.global_State, ptr %26, i32 0, i32 5
  %28 = load i8, ptr %27, align 1, !tbaa !81
  %29 = zext i8 %28 to i32
  %30 = and i32 %29, 96
  %31 = icmp ne i32 %30, 0
  br i1 %31, label %69, label %32

32:                                               ; preds = %2
  %33 = load ptr, ptr %3, align 8, !tbaa !4
  %34 = getelementptr inbounds nuw %struct.jit_State, ptr %33, i32 0, i32 2
  %35 = load ptr, ptr %34, align 8, !tbaa !12
  %36 = getelementptr inbounds nuw %struct.lua_State, ptr %35, i32 0, i32 7
  %37 = load ptr, ptr %36, align 8, !tbaa !96
  %38 = getelementptr inbounds %union.TValue, ptr %37, i64 -2
  %39 = getelementptr inbounds nuw %struct.GCRef, ptr %38, i32 0, i32 0
  %40 = load i64, ptr %39, align 8, !tbaa !11
  %41 = and i64 %40, 140737488355327
  %42 = inttoptr i64 %41 to ptr
  %43 = getelementptr inbounds nuw %struct.GCfuncC, ptr %42, i32 0, i32 3
  %44 = load i8, ptr %43, align 2, !tbaa !11
  %45 = zext i8 %44 to i32
  %46 = icmp eq i32 %45, 0
  br i1 %46, label %47, label %69

47:                                               ; preds = %32
  %48 = load ptr, ptr %5, align 8, !tbaa !138
  %49 = getelementptr inbounds nuw %struct.SnapShot, ptr %48, i32 0, i32 6
  %50 = load i8, ptr %49, align 1, !tbaa !115
  %51 = zext i8 %50 to i32
  %52 = icmp ne i32 %51, 255
  br i1 %52, label %53, label %69

53:                                               ; preds = %47
  %54 = load ptr, ptr %5, align 8, !tbaa !138
  %55 = getelementptr inbounds nuw %struct.SnapShot, ptr %54, i32 0, i32 6
  %56 = load i8, ptr %55, align 1, !tbaa !115
  %57 = add i8 %56, 1
  store i8 %57, ptr %55, align 1, !tbaa !115
  %58 = zext i8 %57 to i32
  %59 = load ptr, ptr %3, align 8, !tbaa !4
  %60 = getelementptr inbounds nuw %struct.jit_State, ptr %59, i32 0, i32 42
  %61 = getelementptr inbounds [15 x i32], ptr %60, i64 0, i64 7
  %62 = load i32, ptr %61, align 4, !tbaa !9
  %63 = icmp sge i32 %58, %62
  br i1 %63, label %64, label %69

64:                                               ; preds = %53
  %65 = load ptr, ptr %3, align 8, !tbaa !4
  %66 = getelementptr inbounds nuw %struct.jit_State, ptr %65, i32 0, i32 17
  store i32 19, ptr %66, align 4, !tbaa !99
  %67 = load ptr, ptr %3, align 8, !tbaa !4
  %68 = load ptr, ptr %4, align 8, !tbaa !67
  call void @lj_trace_ins(ptr noundef %67, ptr noundef %68)
  br label %69

69:                                               ; preds = %64, %53, %47, %32, %2
  call void @llvm.lifetime.end.p0(i64 8, ptr %5) #11
  ret void
}