; Function Attrs: nounwind uwtable
define internal fastcc void @trace_hotside(ptr noundef %0, ptr noundef %1) unnamed_addr #2 {
  %3 = getelementptr inbounds nuw i8, ptr %0, i64 384
  %4 = load ptr, ptr %3, align 8, !tbaa !40
  %5 = getelementptr inbounds nuw i8, ptr %0, i64 3016
  %6 = load i32, ptr %5, align 8, !tbaa !94
  %7 = zext i32 %6 to i64
  %8 = getelementptr inbounds nuw %struct.GCRef, ptr %4, i64 %7
  %9 = load i64, ptr %8, align 8, !tbaa !41
  %10 = inttoptr i64 %9 to ptr
  %11 = getelementptr inbounds nuw i8, ptr %10, i64 48
  %12 = load ptr, ptr %11, align 8, !tbaa !115
  %13 = getelementptr inbounds nuw i8, ptr %0, i64 3020
  %14 = load i32, ptr %13, align 4, !tbaa !95
  %15 = zext i32 %14 to i64
  %16 = getelementptr inbounds i8, ptr %0, i64 -591
  %17 = load i8, ptr %16, align 1, !tbaa !71
  %18 = and i8 %17, 96
  %.not = icmp eq i8 %18, 0
  br i1 %.not, label %19, label %lj_trace_ins.exit

19:                                               ; preds = %2
  %20 = getelementptr inbounds nuw i8, ptr %0, i64 128
  %21 = load ptr, ptr %20, align 8, !tbaa !7
  %22 = getelementptr inbounds nuw i8, ptr %21, i64 32
  %23 = load ptr, ptr %22, align 8, !tbaa !84
  %24 = getelementptr inbounds i8, ptr %23, i64 -16
  %25 = load i64, ptr %24, align 8, !tbaa !4
  %26 = and i64 %25, 140737488355327
  %27 = inttoptr i64 %26 to ptr
  %28 = getelementptr inbounds nuw i8, ptr %27, i64 10
  %29 = load i8, ptr %28, align 2, !tbaa !4
  %30 = icmp eq i8 %29, 0
  br i1 %30, label %31, label %lj_trace_ins.exit

31:                                               ; preds = %19
  %32 = getelementptr inbounds nuw %struct.SnapShot, ptr %12, i64 %15, i32 6
  %33 = load i8, ptr %32, align 1, !tbaa !106
  %.not11 = icmp eq i8 %33, -1
  br i1 %.not11, label %lj_trace_ins.exit, label %34

34:                                               ; preds = %31
  %35 = add nuw i8 %33, 1
  store i8 %35, ptr %32, align 1, !tbaa !106
  %36 = zext i8 %35 to i32
  %37 = getelementptr inbounds nuw i8, ptr %0, i64 1664
  %38 = load i32, ptr %37, align 4, !tbaa !56
  %.not12 = icmp sgt i32 %38, %36
  br i1 %.not12, label %lj_trace_ins.exit, label %39

39:                                               ; preds = %34
  %40 = getelementptr inbounds nuw i8, ptr %0, i64 236
  store i32 19, ptr %40, align 4, !tbaa !87
  %41 = getelementptr inbounds nuw i8, ptr %0, i64 136
  store ptr %1, ptr %41, align 8, !tbaa !83
  %42 = load i64, ptr %24, align 8, !tbaa !4
  %43 = and i64 %42, 140737488355327
  %44 = inttoptr i64 %43 to ptr
  %45 = getelementptr inbounds nuw i8, ptr %0, i64 144
  store ptr %44, ptr %45, align 8, !tbaa !85
  %46 = getelementptr inbounds nuw i8, ptr %44, i64 10
  %47 = load i8, ptr %46, align 2, !tbaa !4
  %48 = icmp eq i8 %47, 0
  br i1 %48, label %49, label %54

49:                                               ; preds = %39
  %50 = getelementptr inbounds nuw i8, ptr %44, i64 32
  %51 = load i64, ptr %50, align 8, !tbaa !4
  %52 = inttoptr i64 %51 to ptr
  %53 = getelementptr inbounds i8, ptr %52, i64 -104
  br label %54

54:                                               ; preds = %49, %39
  %55 = phi ptr [ %53, %49 ], [ null, %39 ]
  %56 = getelementptr inbounds nuw i8, ptr %0, i64 152
  store ptr %55, ptr %56, align 8, !tbaa !86
  %57 = tail call i32 @lj_vm_cpcall(ptr noundef nonnull %21, ptr noundef null, ptr noundef nonnull %0, ptr noundef nonnull @trace_state) #14
  %.not10.i = icmp eq i32 %57, 0
  br i1 %.not10.i, label %lj_trace_ins.exit, label %.lr.ph.i

.lr.ph.i:                                         ; preds = %54, %.lr.ph.i
  store i32 22, ptr %40, align 4, !tbaa !87
  %58 = load ptr, ptr %20, align 8, !tbaa !7
  %59 = tail call i32 @lj_vm_cpcall(ptr noundef %58, ptr noundef null, ptr noundef nonnull %0, ptr noundef nonnull @trace_state) #14
  %.not.i = icmp eq i32 %59, 0
  br i1 %.not.i, label %lj_trace_ins.exit, label %.lr.ph.i, !llvm.loop !88

lj_trace_ins.exit:                                ; preds = %.lr.ph.i, %54, %34, %31, %19, %2
  ret void
}